; Function Attrs: mustprogress uwtable
define void @_ZNK7openvdb5v11_04math9Transform24worldToIndexNodeCenteredERKNS1_4BBoxINS1_4Vec3IdEEEE(ptr noalias nocapture writeonly sret(%"class.openvdb::v11_0::math::CoordBBox") align 4 %agg.result, ptr nocapture noundef nonnull readonly align 8 dereferenceable(16) %this, ptr nocapture noundef nonnull readonly align 8 dereferenceable(48) %worldBBox) local_unnamed_addr #3 align 2 {
entry:
  %indexMin = alloca %"class.openvdb::v11_0::math::Vec3", align 8
  %indexMax = alloca %"class.openvdb::v11_0::math::Vec3", align 8
  %mMax.i = getelementptr inbounds i8, ptr %worldBBox, i64 24
  call void @_ZN7openvdb5v11_04math15calculateBoundsERKNS1_9TransformERKNS1_4Vec3IdEES8_RS6_S9_(ptr noundef nonnull align 8 dereferenceable(16) %this, ptr noundef nonnull align 8 dereferenceable(24) %worldBBox, ptr noundef nonnull align 8 dereferenceable(24) %mMax.i, ptr noundef nonnull align 8 dereferenceable(24) %indexMin, ptr noundef nonnull align 8 dereferenceable(24) %indexMax)
  %0 = load double, ptr %indexMin, align 8
  %1 = tail call noundef double @llvm.floor.f64(double %0)
  %conv.i.i = fptosi double %1 to i32
  %arrayidx.i.i.i = getelementptr inbounds i8, ptr %indexMin, i64 8
  %2 = load double, ptr %arrayidx.i.i.i, align 8
  %3 = tail call noundef double @llvm.floor.f64(double %2)
  %conv.i3.i = fptosi double %3 to i32
  %arrayidx.i.i4.i = getelementptr inbounds i8, ptr %indexMin, i64 16
  %4 = load double, ptr %arrayidx.i.i4.i, align 8
  %5 = tail call noundef double @llvm.floor.f64(double %4)
  %conv.i5.i = fptosi double %5 to i32
  %retval.sroa.2.0.insert.ext.i = zext i32 %conv.i3.i to i64
  %retval.sroa.2.0.insert.shift.i = shl nuw i64 %retval.sroa.2.0.insert.ext.i, 32
  %retval.sroa.0.0.insert.ext.i = zext i32 %conv.i.i to i64
  %retval.sroa.0.0.insert.insert.i = or disjoint i64 %retval.sroa.2.0.insert.shift.i, %retval.sroa.0.0.insert.ext.i
  %6 = load double, ptr %indexMax, align 8
  %7 = tail call noundef double @llvm.floor.f64(double %6)
  %conv.i.i2 = fptosi double %7 to i32
  %arrayidx.i.i.i3 = getelementptr inbounds i8, ptr %indexMax, i64 8
  %8 = load double, ptr %arrayidx.i.i.i3, align 8
  %9 = tail call noundef double @llvm.floor.f64(double %8)
  %conv.i3.i4 = fptosi double %9 to i32
  %arrayidx.i.i4.i5 = getelementptr inbounds i8, ptr %indexMax, i64 16
  %10 = load double, ptr %arrayidx.i.i4.i5, align 8
  %11 = tail call noundef double @llvm.floor.f64(double %10)
  %conv.i5.i6 = fptosi double %11 to i32
  %retval.sroa.2.0.insert.ext.i7 = zext i32 %conv.i3.i4 to i64
  %retval.sroa.2.0.insert.shift.i8 = shl nuw i64 %retval.sroa.2.0.insert.ext.i7, 32
  %retval.sroa.0.0.insert.ext.i9 = zext i32 %conv.i.i2 to i64
  %retval.sroa.0.0.insert.insert.i10 = or disjoint i64 %retval.sroa.2.0.insert.shift.i8, %retval.sroa.0.0.insert.ext.i9
  store i64 %retval.sroa.0.0.insert.insert.i, ptr %agg.result, align 4
  %ref.tmp.sroa.2.0.agg.result.sroa_idx = getelementptr inbounds i8, ptr %agg.result, i64 8
  store i32 %conv.i5.i, ptr %ref.tmp.sroa.2.0.agg.result.sroa_idx, align 4
  %mMax.i13 = getelementptr inbounds i8, ptr %agg.result, i64 12
  store i64 %retval.sroa.0.0.insert.insert.i10, ptr %mMax.i13, align 4
  %ref.tmp5.sroa.2.0.mMax.i13.sroa_idx = getelementptr inbounds i8, ptr %agg.result, i64 20
  store i32 %conv.i5.i6, ptr %ref.tmp5.sroa.2.0.mMax.i13.sroa_idx, align 4
  ret void
}